target datalayout = "e-m:e-p270:32:32-p271:32:32-p272:64:64-i64:64-i128:128-f80:128-n8:16:32:64-S128"
target triple = "x86_64-pc-linux-gnu"

%struct.AVFilterContext = type { ptr, ptr, ptr, ptr, ptr, i32, ptr, ptr, i32, ptr, ptr, i32, i32, ptr, ptr, ptr, ptr, i32, ptr, i32, i32 }
%struct.TremoloContext = type { ptr, double, double, ptr, i32, i32 }
%struct.AVFilterLink = type { ptr, ptr, ptr, ptr, i32, i32, i32, i32, %struct.AVRational, i32, i32, i32, %struct.AVChannelLayout, %struct.AVRational, ptr, i32, %struct.AVFilterFormatsConfig, %struct.AVFilterFormatsConfig }
%struct.AVChannelLayout = type { i32, i32, %union.anon.1, ptr }
%union.anon.1 = type { i64 }
%struct.AVRational = type { i32, i32 }
%struct.AVFilterFormatsConfig = type { ptr, ptr, ptr, ptr, ptr }
%struct.AVFrame = type { [8 x ptr], [8 x i32], ptr, i32, i32, i32, i32, i32, %struct.AVRational, i64, i64, %struct.AVRational, i32, ptr, i32, i32, [8 x ptr], ptr, i32, ptr, i32, i32, i32, i32, i32, i32, i32, i64, ptr, i32, ptr, ptr, i64, i64, i64, i64, ptr, %struct.AVChannelLayout, i64 }

; Function Attrs: nounwind uwtable
define internal i32 @filter_frame(ptr noundef %0, ptr noundef %1) #1 {
  %3 = alloca i32, align 4
  %4 = alloca ptr, align 8
  %5 = alloca ptr, align 8
  %6 = alloca ptr, align 8
  %7 = alloca ptr, align 8
  %8 = alloca ptr, align 8
  %9 = alloca ptr, align 8
  %10 = alloca i32, align 4
  %11 = alloca i32, align 4
  %12 = alloca ptr, align 8
  %13 = alloca ptr, align 8
  %14 = alloca i32, align 4
  %15 = alloca i32, align 4
  %16 = alloca i32, align 4
  store ptr %0, ptr %4, align 8, !tbaa !24
  store ptr %1, ptr %5, align 8, !tbaa !26
  call void @llvm.lifetime.start.p0(i64 8, ptr %6) #5
  %17 = load ptr, ptr %4, align 8, !tbaa !24
  %18 = getelementptr inbounds nuw %struct.AVFilterLink, ptr %17, i32 0, i32 2
  %19 = load ptr, ptr %18, align 8, !tbaa !28
  store ptr %19, ptr %6, align 8, !tbaa !4
  call void @llvm.lifetime.start.p0(i64 8, ptr %7) #5
  %20 = load ptr, ptr %6, align 8, !tbaa !4
  %21 = getelementptr inbounds nuw %struct.AVFilterContext, ptr %20, i32 0, i32 7
  %22 = load ptr, ptr %21, align 8, !tbaa !36
  %23 = getelementptr inbounds ptr, ptr %22, i64 0
  %24 = load ptr, ptr %23, align 8, !tbaa !24
  store ptr %24, ptr %7, align 8, !tbaa !24
  call void @llvm.lifetime.start.p0(i64 8, ptr %8) #5
  %25 = load ptr, ptr %6, align 8, !tbaa !4
  %26 = getelementptr inbounds nuw %struct.AVFilterContext, ptr %25, i32 0, i32 9
  %27 = load ptr, ptr %26, align 8, !tbaa !9
  store ptr %27, ptr %8, align 8, !tbaa !22
  call void @llvm.lifetime.start.p0(i64 8, ptr %9) #5
  %28 = load ptr, ptr %5, align 8, !tbaa !26
  %29 = getelementptr inbounds nuw %struct.AVFrame, ptr %28, i32 0, i32 0
  %30 = getelementptr inbounds [8 x ptr], ptr %29, i64 0, i64 0
  %31 = load ptr, ptr %30, align 8, !tbaa !37
  store ptr %31, ptr %9, align 8, !tbaa !38
  call void @llvm.lifetime.start.p0(i64 4, ptr %10) #5
  %32 = load ptr, ptr %4, align 8, !tbaa !24
  %33 = getelementptr inbounds nuw %struct.AVFilterLink, ptr %32, i32 0, i32 12
  %34 = getelementptr inbounds nuw %struct.AVChannelLayout, ptr %33, i32 0, i32 1
  %35 = load i32, ptr %34, align 4, !tbaa !39
  store i32 %35, ptr %10, align 4, !tbaa !40
  call void @llvm.lifetime.start.p0(i64 4, ptr %11) #5
  %36 = load ptr, ptr %5, align 8, !tbaa !26
  %37 = getelementptr inbounds nuw %struct.AVFrame, ptr %36, i32 0, i32 5
  %38 = load i32, ptr %37, align 8, !tbaa !41
  store i32 %38, ptr %11, align 4, !tbaa !40
  call void @llvm.lifetime.start.p0(i64 8, ptr %12) #5
  call void @llvm.lifetime.start.p0(i64 8, ptr %13) #5
  call void @llvm.lifetime.start.p0(i64 4, ptr %14) #5
  call void @llvm.lifetime.start.p0(i64 4, ptr %15) #5
  %39 = load ptr, ptr %5, align 8, !tbaa !26
  %40 = call i32 @av_frame_is_writable(ptr noundef %39)
  %41 = icmp ne i32 %40, 0
  br i1 %41, label %42, label %44

42:                                               ; preds = %2
  %43 = load ptr, ptr %5, align 8, !tbaa !26
  store ptr %43, ptr %12, align 8, !tbaa !26
  br label %57

44:                                               ; preds = %2
  %45 = load ptr, ptr %7, align 8, !tbaa !24
  %46 = load ptr, ptr %5, align 8, !tbaa !26
  %47 = getelementptr inbounds nuw %struct.AVFrame, ptr %46, i32 0, i32 5
  %48 = load i32, ptr %47, align 8, !tbaa !41
  %49 = call ptr @ff_get_audio_buffer(ptr noundef %45, i32 noundef %48)
  store ptr %49, ptr %12, align 8, !tbaa !26
  %50 = load ptr, ptr %12, align 8, !tbaa !26
  %51 = icmp ne ptr %50, null
  br i1 %51, label %53, label %52

52:                                               ; preds = %44
  call void @av_frame_free(ptr noundef %5)
  store i32 -12, ptr %3, align 4
  store i32 1, ptr %16, align 4
  br label %130

53:                                               ; preds = %44
  %54 = load ptr, ptr %12, align 8, !tbaa !26
  %55 = load ptr, ptr %5, align 8, !tbaa !26
  %56 = call i32 @av_frame_copy_props(ptr noundef %54, ptr noundef %55)
  br label %57

57:                                               ; preds = %53, %42
  %58 = load ptr, ptr %12, align 8, !tbaa !26
  %59 = getelementptr inbounds nuw %struct.AVFrame, ptr %58, i32 0, i32 0
  %60 = getelementptr inbounds [8 x ptr], ptr %59, i64 0, i64 0
  %61 = load ptr, ptr %60, align 8, !tbaa !37
  store ptr %61, ptr %13, align 8, !tbaa !38
  store i32 0, ptr %14, align 4, !tbaa !40
  br label %62

62:                                               ; preds = %118, %57
  %63 = load i32, ptr %14, align 4, !tbaa !40
  %64 = load i32, ptr %11, align 4, !tbaa !40
  %65 = icmp slt i32 %63, %64
  br i1 %65, label %66, label %121

66:                                               ; preds = %62
  store i32 0, ptr %15, align 4, !tbaa !40
  br label %67

67:                                               ; preds = %91, %66
  %68 = load i32, ptr %15, align 4, !tbaa !40
  %69 = load i32, ptr %10, align 4, !tbaa !40
  %70 = icmp slt i32 %68, %69
  br i1 %70, label %71, label %94

71:                                               ; preds = %67
  %72 = load ptr, ptr %9, align 8, !tbaa !38
  %73 = load i32, ptr %15, align 4, !tbaa !40
  %74 = sext i32 %73 to i64
  %75 = getelementptr inbounds double, ptr %72, i64 %74
  %76 = load double, ptr %75, align 8, !tbaa !47
  %77 = load ptr, ptr %8, align 8, !tbaa !22
  %78 = getelementptr inbounds nuw %struct.TremoloContext, ptr %77, i32 0, i32 3
  %79 = load ptr, ptr %78, align 8, !tbaa !49
  %80 = load ptr, ptr %8, align 8, !tbaa !22
  %81 = getelementptr inbounds nuw %struct.TremoloContext, ptr %80, i32 0, i32 5
  %82 = load i32, ptr %81, align 4, !tbaa !51
  %83 = sext i32 %82 to i64
  %84 = getelementptr inbounds double, ptr %79, i64 %83
  %85 = load double, ptr %84, align 8, !tbaa !47
  %86 = fmul nsz double %76, %85
  %87 = load ptr, ptr %13, align 8, !tbaa !38
  %88 = load i32, ptr %15, align 4, !tbaa !40
  %89 = sext i32 %88 to i64
  %90 = getelementptr inbounds double, ptr %87, i64 %89
  store double %86, ptr %90, align 8, !tbaa !47
  br label %91

91:                                               ; preds = %71
  %92 = load i32, ptr %15, align 4, !tbaa !40
  %93 = add nsw i32 %92, 1
  store i32 %93, ptr %15, align 4, !tbaa !40
  br label %67, !llvm.loop !52

94:                                               ; preds = %67
  %95 = load i32, ptr %10, align 4, !tbaa !40
  %96 = load ptr, ptr %13, align 8, !tbaa !38
  %97 = sext i32 %95 to i64
  %98 = getelementptr inbounds double, ptr %96, i64 %97
  store ptr %98, ptr %13, align 8, !tbaa !38
  %99 = load i32, ptr %10, align 4, !tbaa !40
  %100 = load ptr, ptr %9, align 8, !tbaa !38
  %101 = sext i32 %99 to i64
  %102 = getelementptr inbounds double, ptr %100, i64 %101
  store ptr %102, ptr %9, align 8, !tbaa !38
  %103 = load ptr, ptr %8, align 8, !tbaa !22
  %104 = getelementptr inbounds nuw %struct.TremoloContext, ptr %103, i32 0, i32 5
  %105 = load i32, ptr %104, align 4, !tbaa !51
  %106 = add nsw i32 %105, 1
  store i32 %106, ptr %104, align 4, !tbaa !51
  %107 = load ptr, ptr %8, align 8, !tbaa !22
  %108 = getelementptr inbounds nuw %struct.TremoloContext, ptr %107, i32 0, i32 5
  %109 = load i32, ptr %108, align 4, !tbaa !51
  %110 = load ptr, ptr %8, align 8, !tbaa !22
  %111 = getelementptr inbounds nuw %struct.TremoloContext, ptr %110, i32 0, i32 4
  %112 = load i32, ptr %111, align 8, !tbaa !54
  %113 = icmp sge i32 %109, %112
  br i1 %113, label %114, label %117

114:                                              ; preds = %94
  %115 = load ptr, ptr %8, align 8, !tbaa !22
  %116 = getelementptr inbounds nuw %struct.TremoloContext, ptr %115, i32 0, i32 5
  store i32 0, ptr %116, align 4, !tbaa !51
  br label %117

117:                                              ; preds = %114, %94
  br label %118

118:                                              ; preds = %117
  %119 = load i32, ptr %14, align 4, !tbaa !40
  %120 = add nsw i32 %119, 1
  store i32 %120, ptr %14, align 4, !tbaa !40
  br label %62, !llvm.loop !55

121:                                              ; preds = %62
  %122 = load ptr, ptr %5, align 8, !tbaa !26
  %123 = load ptr, ptr %12, align 8, !tbaa !26
  %124 = icmp ne ptr %122, %123
  br i1 %124, label %125, label %126

125:                                              ; preds = %121
  call void @av_frame_free(ptr noundef %5)
  br label %126

126:                                              ; preds = %125, %121
  %127 = load ptr, ptr %7, align 8, !tbaa !24
  %128 = load ptr, ptr %12, align 8, !tbaa !26
  %129 = call i32 @ff_filter_frame(ptr noundef %127, ptr noundef %128)
  store i32 %129, ptr %3, align 4
  store i32 1, ptr %16, align 4
  br label %130

130:                                              ; preds = %126, %52
  call void @llvm.lifetime.end.p0(i64 4, ptr %15) #5
  call void @llvm.lifetime.end.p0(i64 4, ptr %14) #5
  call void @llvm.lifetime.end.p0(i64 8, ptr %13) #5
  call void @llvm.lifetime.end.p0(i64 8, ptr %12) #5
  call void @llvm.lifetime.end.p0(i64 4, ptr %11) #5
  call void @llvm.lifetime.end.p0(i64 4, ptr %10) #5
  call void @llvm.lifetime.end.p0(i64 8, ptr %9) #5
  call void @llvm.lifetime.end.p0(i64 8, ptr %8) #5
  call void @llvm.lifetime.end.p0(i64 8, ptr %7) #5
  call void @llvm.lifetime.end.p0(i64 8, ptr %6) #5
  %131 = load i32, ptr %3, align 4
  ret i32 %131
}