; Function Attrs: nounwind uwtable
define internal i32 @filter_frame(ptr noundef readonly captures(none) %0, ptr noundef %1) #1 {
  %3 = alloca ptr, align 8
  store ptr %1, ptr %3, align 8, !tbaa !20
  %4 = getelementptr inbounds nuw i8, ptr %0, i64 16
  %5 = load ptr, ptr %4, align 8, !tbaa !22
  %6 = getelementptr inbounds nuw i8, ptr %5, i64 56
  %7 = load ptr, ptr %6, align 8, !tbaa !31
  %8 = load ptr, ptr %7, align 8, !tbaa !32
  %9 = getelementptr inbounds nuw i8, ptr %5, i64 72
  %10 = load ptr, ptr %9, align 8, !tbaa !4
  %11 = load ptr, ptr %1, align 8, !tbaa !34
  %12 = getelementptr inbounds nuw i8, ptr %0, i64 76
  %13 = load i32, ptr %12, align 4, !tbaa !35
  %14 = getelementptr inbounds nuw i8, ptr %1, i64 112
  %15 = load i32, ptr %14, align 8, !tbaa !36
  %16 = tail call i32 @av_frame_is_writable(ptr noundef nonnull %1) #4
  %.not = icmp eq i32 %16, 0
  br i1 %.not, label %17, label %23

17:                                               ; preds = %2
  %18 = load i32, ptr %14, align 8, !tbaa !36
  %19 = tail call ptr @ff_get_audio_buffer(ptr noundef %8, i32 noundef %18) #4
  %.not38 = icmp eq ptr %19, null
  br i1 %.not38, label %20, label %21

20:                                               ; preds = %17
  call void @av_frame_free(ptr noundef nonnull %3) #4
  br label %51

21:                                               ; preds = %17
  %22 = tail call i32 @av_frame_copy_props(ptr noundef nonnull %19, ptr noundef nonnull %1) #4
  br label %23

23:                                               ; preds = %2, %21
  %.033 = phi ptr [ %19, %21 ], [ %1, %2 ]
  %24 = icmp sgt i32 %15, 0
  br i1 %24, label %.preheader.lr.ph, label %._crit_edge45

.preheader.lr.ph:                                 ; preds = %23
  %25 = icmp sgt i32 %13, 0
  %26 = getelementptr inbounds nuw i8, ptr %10, i64 36
  %27 = sext i32 %13 to i64
  %28 = getelementptr inbounds nuw i8, ptr %10, i64 32
  br i1 %25, label %.preheader.us.preheader, label %.preheader.lr.ph.split

.preheader.us.preheader:                          ; preds = %.preheader.lr.ph
  %29 = getelementptr inbounds nuw i8, ptr %10, i64 24
  %30 = load ptr, ptr %.033, align 8, !tbaa !34
  %.pre49 = load ptr, ptr %29, align 8, !tbaa !42
  %.pre50 = load i32, ptr %26, align 4, !tbaa !45
  %wide.trip.count = zext nneg i32 %13 to i64
  br label %.preheader.us

.preheader.us:                                    ; preds = %.preheader.us.preheader, %._crit_edge.us
  %31 = phi i32 [ %spec.store.select.us, %._crit_edge.us ], [ %.pre50, %.preheader.us.preheader ]
  %.03144.us = phi i32 [ %44, %._crit_edge.us ], [ 0, %.preheader.us.preheader ]
  %.03243.us = phi ptr [ %40, %._crit_edge.us ], [ %30, %.preheader.us.preheader ]
  %.03542.us = phi ptr [ %41, %._crit_edge.us ], [ %11, %.preheader.us.preheader ]
  %32 = sext i32 %31 to i64
  %33 = getelementptr inbounds double, ptr %.pre49, i64 %32
  br label %34

34:                                               ; preds = %.preheader.us, %34
  %indvars.iv = phi i64 [ 0, %.preheader.us ], [ %indvars.iv.next, %34 ]
  %35 = getelementptr inbounds nuw double, ptr %.03542.us, i64 %indvars.iv
  %36 = load double, ptr %35, align 8, !tbaa !46
  %37 = load double, ptr %33, align 8, !tbaa !46
  %38 = fmul nsz double %36, %37
  %39 = getelementptr inbounds nuw double, ptr %.03243.us, i64 %indvars.iv
  store double %38, ptr %39, align 8, !tbaa !46
  %indvars.iv.next = add nuw nsw i64 %indvars.iv, 1
  %exitcond47.not = icmp eq i64 %indvars.iv.next, %wide.trip.count
  br i1 %exitcond47.not, label %._crit_edge.us, label %34, !llvm.loop !47

._crit_edge.us:                                   ; preds = %34
  %40 = getelementptr inbounds nuw double, ptr %.03243.us, i64 %27
  %41 = getelementptr inbounds nuw double, ptr %.03542.us, i64 %27
  %42 = add nsw i32 %31, 1
  %43 = load i32, ptr %28, align 8, !tbaa !49
  %.not40.us = icmp slt i32 %42, %43
  %spec.store.select.us = select i1 %.not40.us, i32 %42, i32 0
  store i32 %spec.store.select.us, ptr %26, align 4
  %44 = add nuw nsw i32 %.03144.us, 1
  %exitcond48.not = icmp eq i32 %44, %15
  br i1 %exitcond48.not, label %._crit_edge45, label %.preheader.us, !llvm.loop !50

.preheader.lr.ph.split:                           ; preds = %.preheader.lr.ph
  %.promoted = load i32, ptr %26, align 4
  %.pre = load i32, ptr %28, align 8, !tbaa !49
  br label %.preheader

.preheader:                                       ; preds = %.preheader.lr.ph.split, %.preheader
  %45 = phi i32 [ %.promoted, %.preheader.lr.ph.split ], [ %spec.store.select, %.preheader ]
  %.03144 = phi i32 [ 0, %.preheader.lr.ph.split ], [ %47, %.preheader ]
  %46 = add nsw i32 %45, 1
  %.not40 = icmp slt i32 %46, %.pre
  %spec.store.select = select i1 %.not40, i32 %46, i32 0
  %47 = add nuw nsw i32 %.03144, 1
  %exitcond.not = icmp eq i32 %47, %15
  br i1 %exitcond.not, label %._crit_edge45.split, label %.preheader, !llvm.loop !50

._crit_edge45.split:                              ; preds = %.preheader
  store i32 %spec.store.select, ptr %26, align 4
  br label %._crit_edge45

._crit_edge45:                                    ; preds = %._crit_edge.us, %._crit_edge45.split, %23
  %.not39 = icmp eq ptr %1, %.033
  br i1 %.not39, label %49, label %48

48:                                               ; preds = %._crit_edge45
  call void @av_frame_free(ptr noundef nonnull %3) #4
  br label %49

49:                                               ; preds = %48, %._crit_edge45
  %50 = call i32 @ff_filter_frame(ptr noundef %8, ptr noundef nonnull %.033) #4
  br label %51

51:                                               ; preds = %49, %20
  %.034 = phi i32 [ %50, %49 ], [ -12, %20 ]
  ret i32 %.034
}